; Function Attrs: mustprogress nofree norecurse nosync nounwind willreturn memory(write, argmem: readwrite, inaccessiblemem: none) uwtable
define noundef i32 @N_VEnableWrmsNormVectorArray_Serial(ptr noundef readonly captures(none) %0, i32 noundef %1) local_unnamed_addr #17 {
  %.not = icmp eq i32 %1, 0
  %3 = select i1 %.not, ptr null, ptr @N_VWrmsNormVectorArray_Serial
  %4 = getelementptr inbounds nuw i8, ptr %0, i64 8
  %5 = load ptr, ptr %4, align 8, !tbaa !3
  %6 = getelementptr inbounds nuw i8, ptr %5, i64 288
  store ptr %3, ptr %6, align 8, !tbaa !79
  ret i32 0
}